target datalayout = "e-m:e-p270:32:32-p271:32:32-p272:64:64-i64:64-i128:128-f80:128-n8:16:32:64-S128"
target triple = "x86_64-pc-linux-gnu"

%struct.nstime_t = type { i64 }
%struct.decay_s = type { %struct.malloc_mutex_s, i8, %struct.atomic_zd_t, %struct.nstime_t, %struct.nstime_t, i64, %struct.nstime_t, i64, i64, [200 x i64], i64 }
%struct.malloc_mutex_s = type { %union.anon }
%union.anon = type { %struct.anon }
%struct.anon = type { %struct.mutex_prof_data_t, %union.pthread_mutex_t, %struct.atomic_b_t }
%struct.mutex_prof_data_t = type { %struct.nstime_t, %struct.nstime_t, i64, i64, i32, %struct.atomic_u32_t, i64, ptr, i64 }
%struct.atomic_u32_t = type { i32 }
%union.pthread_mutex_t = type { %struct.__pthread_mutex_s }
%struct.__pthread_mutex_s = type { i32, i32, i32, i32, i32, i16, i16, %struct.__pthread_internal_list }
%struct.__pthread_internal_list = type { ptr, ptr }
%struct.atomic_b_t = type { i8 }
%struct.atomic_zd_t = type { i64 }

@.str = private unnamed_addr constant [6 x i8] c"decay\00", align 1

; Function Attrs: alwaysinline nounwind uwtable
define internal i32 @atomic_enum_to_builtin(i32 noundef %0) #4 {
  %2 = alloca i32, align 4
  %3 = alloca i32, align 4
  store i32 %0, ptr %3, align 4, !tbaa !13
  %4 = load i32, ptr %3, align 4, !tbaa !13
  switch i32 %4, label %10 [
    i32 0, label %5
    i32 1, label %6
    i32 2, label %7
    i32 3, label %8
    i32 4, label %9
  ]

5:                                                ; preds = %1
  store i32 0, ptr %2, align 4
  br label %12

6:                                                ; preds = %1
  store i32 2, ptr %2, align 4
  br label %12

7:                                                ; preds = %1
  store i32 3, ptr %2, align 4
  br label %12

8:                                                ; preds = %1
  store i32 4, ptr %2, align 4
  br label %12

9:                                                ; preds = %1
  store i32 5, ptr %2, align 4
  br label %12

10:                                               ; preds = %1
  br label %11

11:                                               ; preds = %10
  unreachable

12:                                               ; preds = %5, %6, %7, %8, %9
  %13 = load i32, ptr %2, align 4
  ret i32 %13
}

; Function Attrs: alwaysinline nounwind uwtable
define internal void @atomic_store_zd(ptr noundef %0, i64 noundef %1, i32 noundef %2) #4 {
  %4 = alloca ptr, align 8
  %5 = alloca i64, align 8
  %6 = alloca i32, align 4
  store ptr %0, ptr %4, align 8, !tbaa !17
  store i64 %1, ptr %5, align 8, !tbaa !11
  store i32 %2, ptr %6, align 4, !tbaa !13
  %7 = load ptr, ptr %4, align 8, !tbaa !17
  %8 = getelementptr inbounds nuw %struct.atomic_zd_t, ptr %7, i32 0, i32 0
  %9 = load i32, ptr %6, align 4, !tbaa !13
  %10 = call i32 @atomic_enum_to_builtin(i32 noundef %9)
  switch i32 %10, label %11 [
    i32 3, label %13
    i32 5, label %15
  ]

11:                                               ; preds = %3
  %12 = load i64, ptr %5, align 8
  store atomic i64 %12, ptr %8 monotonic, align 8
  br label %17

13:                                               ; preds = %3
  %14 = load i64, ptr %5, align 8
  store atomic i64 %14, ptr %8 release, align 8
  br label %17

15:                                               ; preds = %3
  %16 = load i64, ptr %5, align 8
  store atomic i64 %16, ptr %8 seq_cst, align 8
  br label %17

17:                                               ; preds = %15, %13, %11
  ret void
}

; Function Attrs: nounwind uwtable
define hidden void @je_decay_reinit(ptr noundef %0, ptr noundef %1, i64 noundef %2) #0 {
  %4 = alloca ptr, align 8
  %5 = alloca ptr, align 8
  %6 = alloca i64, align 8
  store ptr %0, ptr %4, align 8, !tbaa !4
  store ptr %1, ptr %5, align 8, !tbaa !17
  store i64 %2, ptr %6, align 8, !tbaa !11
  %7 = load ptr, ptr %4, align 8, !tbaa !4
  %8 = getelementptr inbounds nuw %struct.decay_s, ptr %7, i32 0, i32 2
  %9 = load i64, ptr %6, align 8, !tbaa !11
  call void @atomic_store_zd(ptr noundef %8, i64 noundef %9, i32 noundef 0)
  %10 = load i64, ptr %6, align 8, !tbaa !11
  %11 = icmp sgt i64 %10, 0
  br i1 %11, label %12, label %19

12:                                               ; preds = %3
  %13 = load ptr, ptr %4, align 8, !tbaa !4
  %14 = getelementptr inbounds nuw %struct.decay_s, ptr %13, i32 0, i32 3
  %15 = load i64, ptr %6, align 8, !tbaa !11
  %16 = mul i64 %15, 1000000
  call void @je_nstime_init(ptr noundef %14, i64 noundef %16)
  %17 = load ptr, ptr %4, align 8, !tbaa !4
  %18 = getelementptr inbounds nuw %struct.decay_s, ptr %17, i32 0, i32 3
  call void @je_nstime_idivide(ptr noundef %18, i64 noundef 200)
  br label %19

19:                                               ; preds = %12, %3
  %20 = load ptr, ptr %4, align 8, !tbaa !4
  %21 = getelementptr inbounds nuw %struct.decay_s, ptr %20, i32 0, i32 4
  %22 = load ptr, ptr %5, align 8, !tbaa !17
  call void @je_nstime_copy(ptr noundef %21, ptr noundef %22)
  %23 = load ptr, ptr %4, align 8, !tbaa !4
  %24 = ptrtoint ptr %23 to i64
  %25 = load ptr, ptr %4, align 8, !tbaa !4
  %26 = getelementptr inbounds nuw %struct.decay_s, ptr %25, i32 0, i32 5
  store i64 %24, ptr %26, align 8, !tbaa !18
  %27 = load ptr, ptr %4, align 8, !tbaa !4
  call void @je_decay_deadline_init(ptr noundef %27)
  %28 = load ptr, ptr %4, align 8, !tbaa !4
  %29 = getelementptr inbounds nuw %struct.decay_s, ptr %28, i32 0, i32 8
  store i64 0, ptr %29, align 8, !tbaa !23
  %30 = load ptr, ptr %4, align 8, !tbaa !4
  %31 = getelementptr inbounds nuw %struct.decay_s, ptr %30, i32 0, i32 9
  %32 = getelementptr inbounds [200 x i64], ptr %31, i64 0, i64 0
  call void @llvm.memset.p0.i64(ptr align 8 %32, i8 0, i64 1600, i1 false)
  ret void
}

; Function Attrs: nounwind uwtable
define hidden zeroext i1 @je_decay_init(ptr noundef %0, ptr noundef %1, i64 noundef %2) #0 {
  %4 = alloca i1, align 1
  %5 = alloca ptr, align 8
  %6 = alloca ptr, align 8
  %7 = alloca i64, align 8
  store ptr %0, ptr %5, align 8, !tbaa !4
  store ptr %1, ptr %6, align 8, !tbaa !17
  store i64 %2, ptr %7, align 8, !tbaa !11
  %8 = load ptr, ptr %5, align 8, !tbaa !4
  %9 = getelementptr inbounds nuw %struct.decay_s, ptr %8, i32 0, i32 0
  %10 = call zeroext i1 @je_malloc_mutex_init(ptr noundef %9, ptr noundef @.str, i32 noundef 14, i32 noundef 0)
  br i1 %10, label %11, label %12

11:                                               ; preds = %3
  store i1 true, ptr %4, align 1
  br label %18

12:                                               ; preds = %3
  %13 = load ptr, ptr %5, align 8, !tbaa !4
  %14 = getelementptr inbounds nuw %struct.decay_s, ptr %13, i32 0, i32 1
  store i8 0, ptr %14, align 8, !tbaa !24
  %15 = load ptr, ptr %5, align 8, !tbaa !4
  %16 = load ptr, ptr %6, align 8, !tbaa !17
  %17 = load i64, ptr %7, align 8, !tbaa !11
  call void @je_decay_reinit(ptr noundef %15, ptr noundef %16, i64 noundef %17)
  store i1 false, ptr %4, align 1
  br label %18

18:                                               ; preds = %12, %11
  %19 = load i1, ptr %4, align 1
  ret i1 %19
}