; Function Attrs: nounwind uwtable
define hidden noundef zeroext i1 @je_decay_init(ptr noundef %0, ptr noundef %1, i64 noundef %2) local_unnamed_addr #0 {
  %4 = tail call zeroext i1 @je_malloc_mutex_init(ptr noundef %0, ptr noundef nonnull @.str, i32 noundef 14, i32 noundef 0) #9
  br i1 %4, label %16, label %5

5:                                                ; preds = %3
  %6 = getelementptr inbounds nuw i8, ptr %0, i64 112
  store i8 0, ptr %6, align 8, !tbaa !16
  %7 = getelementptr inbounds nuw i8, ptr %0, i64 120
  store atomic i64 %2, ptr %7 monotonic, align 8
  %8 = icmp sgt i64 %2, 0
  br i1 %8, label %9, label %je_decay_reinit.exit

9:                                                ; preds = %5
  %10 = getelementptr inbounds nuw i8, ptr %0, i64 128
  %11 = mul i64 %2, 1000000
  tail call void @je_nstime_init(ptr noundef nonnull %10, i64 noundef %11) #9
  tail call void @je_nstime_idivide(ptr noundef nonnull %10, i64 noundef 200) #9
  br label %je_decay_reinit.exit

je_decay_reinit.exit:                             ; preds = %5, %9
  %12 = getelementptr inbounds nuw i8, ptr %0, i64 136
  tail call void @je_nstime_copy(ptr noundef nonnull %12, ptr noundef %1) #9
  %13 = ptrtoint ptr %0 to i64
  %14 = getelementptr inbounds nuw i8, ptr %0, i64 144
  store i64 %13, ptr %14, align 8, !tbaa !11
  tail call void @je_decay_deadline_init(ptr noundef nonnull %0)
  %15 = getelementptr inbounds nuw i8, ptr %0, i64 168
  tail call void @llvm.memset.p0.i64(ptr noundef nonnull align 8 dereferenceable(1608) %15, i8 0, i64 1608, i1 false)
  br label %16

16:                                               ; preds = %3, %je_decay_reinit.exit
  ret i1 %4
}